Certificate:
    Data:
        Version: 1 (0x0)
        Serial Number: 1 (0x1)
        Signature Algorithm: md5WithRSAEncryption
        Issuer: O=FalseSecure, L=My Town, ST=State or Providence, C=US, CN=FalseSecure CA
        Validity
            Not Before: May 16 18:25:08 2011 GMT
            Not After : May 15 18:25:08 2012 GMT
        Subject: C=US, ST=State or Providence, O=FalseSecure Mobile, CN=localhost
        Subject Public Key Info:
            Public Key Algorithm: rsaEncryption
            RSA Public Key: (1024 bit)
                Modulus (1024 bit):
                    00:b6:ef:bf:ce:c7:e7:25:5a:23:d2:23:1c:b6:23:
                    d6:5e:0e:86:f3:b9:38:d4:b4:67:fb:66:6e:ad:82:
                    b4:d1:9e:cc:e7:64:7c:44:5f:6b:7e:1c:6e:cb:4d:
                    db:1e:36:32:ab:eb:3f:a3:a9:0c:c0:9e:83:38:48:
                    15:a5:ba:90:01:97:99:f2:87:03:05:ab:5b:35:bd:
                    bb:40:49:49:9b:b7:e8:ea:b9:0f:00:a1:a2:d8:21:
                    78:6d:35:7b:fa:03:4e:44:d3:11:7e:db:a9:fc:3a:
                    00:be:2e:72:6a:d3:86:ab:cf:db:e5:cf:e9:ac:4d:
                    54:1b:70:aa:56:c2:31:2c:9b
                Exponent: 65537 (0x10001)
    Signature Algorithm: md5WithRSAEncryption
        91:dc:43:69:78:d9:bb:be:0f:f0:79:2b:af:2f:a8:34:99:24:
        ea:49:5c:a8:5b:0f:5a:f5:7d:2e:80:4a:dc:87:a2:b2:99:85:
        9b:b4:38:15:e7:2b:4f:3a:37:6b:61:ea:46:a7:03:09:bf:2a:
        5a:27:ec:aa:02:c8:54:70:c6:0d:10:77:26:a3:4d:f1:f3:f6:
        64:e9:81:f0:6a:ee:be:85:cc:67:21:37:9a:66:bc:f3:fc:1e:
        04:6c:b9:c8:4e:4e:67:4f:2b:88:cf:a4:96:77:90:f1:cf:19:
        60:7a:fd:d8:e5:f2:0d:0d:6d:c6:e1:a1:ab:6a:a4:95:f1:ff:
        93:0c
-----BEGIN CERTIFICATE-----
MIICNzCCAaACAQEwDQYJKoZIhvcNAQEEBQAwbDEUMBIGA1UEChMLRmFsc2VTZWN1
cmUxEDAOBgNVBAcTB015IFRvd24xHDAaBgNVBAgTE1N0YXRlIG9yIFByb3ZpZGVu
Y2UxCzAJBgNVBAYTAlVTMRcwFQYDVQQDEw5GYWxzZVNlY3VyZSBDQTAeFw0xMTA1
MTYxODI1MDhaFw0xMjA1MTUxODI1MDhaMFwxCzAJBgNVBAYTAlVTMRwwGgYDVQQI
ExNTdGF0ZSBvciBQcm92aWRlbmNlMRswGQYDVQQKExJGYWxzZVNlY3VyZSBNb2Jp
bGUxEjAQBgNVBAMTCWxvY2FsaG9zdDCBnzANBgkqhkiG9w0BAQEFAAOBjQAwgYkC
gYEAtu+/zsfnJVoj0iMctiPWXg6G87k41LRn+2ZurYK00Z7M52R8RF9rfhxuy03b
HjYyq+s/o6kMwJ6DOEgVpbqQAZeZ8ocDBatbNb27QElJm7fo6rkPAKGi2CF4bTV7
+gNORNMRftup/DoAvi5yatOGq8/b5c/prE1UG3CqVsIxLJsCAwEAATANBgkqhkiG
9w0BAQQFAAOBgQCR3ENpeNm7vg/weSuvL6g0mSTqSVyoWw9a9X0ugErch6KymYWb
tDgV5ytPOjdrYepGpwMJvypaJ+yqAshUcMYNEHcmo03x8/Zk6YHwau6+hcxnITea
Zrzz/B4EbLnITk5nTyuIz6SWd5Dxzxlgev3Y5fINDW3G4aGraqSV8f+TDA==
-----END CERTIFICATE-----
